; Function Attrs: mustprogress noreturn nounwind uwtable
define internal fastcc void @"_ZZN5clang9ASTReader14ReadDeclRecordENS_12GlobalDeclIDEENK3$_0clEPKcON4llvm5ErrorE"(ptr noundef %0, ptr nocapture noundef nonnull align 8 dereferenceable(8) %1) unnamed_addr #13 align 2 {
  %3 = alloca %"class.llvm::Twine", align 8
  %4 = alloca %"class.llvm::Twine", align 8
  %5 = alloca %"class.llvm::Twine", align 8
  %6 = alloca %"class.llvm::Twine", align 8
  %7 = alloca %"class.llvm::Twine", align 8
  %8 = alloca %"class.llvm::Twine", align 8
  %9 = alloca %"class.llvm::Twine", align 8
  %10 = alloca %"class.std::__cxx11::basic_string", align 8
  %11 = alloca %"class.llvm::Error", align 8
  %12 = getelementptr inbounds nuw i8, ptr %6, i64 32
  %13 = getelementptr inbounds nuw i8, ptr %6, i64 33
  store i8 1, ptr %13, align 1
  store ptr @.str.37, ptr %6, align 8
  store i8 3, ptr %12, align 8
  %14 = getelementptr inbounds nuw i8, ptr %7, i64 33
  store i8 1, ptr %14, align 1
  %15 = load i8, ptr %0, align 1
  %.not.i = icmp eq i8 %15, 0
  br i1 %.not.i, label %_ZN4llvm5TwineC2EPKc.exit, label %16

16:                                               ; preds = %2
  store ptr %0, ptr %7, align 8
  br label %_ZN4llvm5TwineC2EPKc.exit

_ZN4llvm5TwineC2EPKc.exit:                        ; preds = %2, %16
  %storemerge.i = phi i8 [ 3, %16 ], [ 1, %2 ]
  %17 = getelementptr inbounds nuw i8, ptr %7, i64 32
  store i8 %storemerge.i, ptr %17, align 8
  call void @_ZN4llvmplERKNS_5TwineES2_(ptr dead_on_unwind nonnull writable sret(%"class.llvm::Twine") align 8 %5, ptr noundef nonnull align 8 dereferenceable(34) %6, ptr noundef nonnull align 8 dereferenceable(34) %7)
  %18 = getelementptr inbounds nuw i8, ptr %8, i64 32
  %19 = getelementptr inbounds nuw i8, ptr %8, i64 33
  store i8 1, ptr %19, align 1
  store ptr @.str.38, ptr %8, align 8
  store i8 3, ptr %18, align 8
  call void @_ZN4llvmplERKNS_5TwineES2_(ptr dead_on_unwind nonnull writable sret(%"class.llvm::Twine") align 8 %4, ptr noundef nonnull align 8 dereferenceable(34) %5, ptr noundef nonnull align 8 dereferenceable(34) %8)
  %20 = load ptr, ptr %1, align 8
  store ptr %20, ptr %11, align 8
  store ptr null, ptr %1, align 8
  call void @_ZN4llvm8toStringB5cxx11ENS_5ErrorE(ptr dead_on_unwind nonnull writable sret(%"class.std::__cxx11::basic_string") align 8 %10, ptr noundef nonnull %11) #26
  %21 = getelementptr inbounds nuw i8, ptr %9, i64 32
  store i8 4, ptr %21, align 8
  %22 = getelementptr inbounds nuw i8, ptr %9, i64 33
  store i8 1, ptr %22, align 1
  store ptr %10, ptr %9, align 8
  call void @_ZN4llvmplERKNS_5TwineES2_(ptr dead_on_unwind nonnull writable sret(%"class.llvm::Twine") align 8 %3, ptr noundef nonnull align 8 dereferenceable(34) %4, ptr noundef nonnull align 8 dereferenceable(34) %9)
  call void @_ZN4llvm18report_fatal_errorERKNS_5TwineEb(ptr noundef nonnull align 8 dereferenceable(34) %3, i1 noundef zeroext true) #31
  unreachable
}